###############################################################################
#
# IAR ELF Linker V7.80.4.12462/W32 for ARM                04/Sep/2017  16:06:43
# Copyright 2007-2017 IAR Systems AB.
#
#    Output file  =  
#        D:\Mario\!_Working_Dir_Mario\Desoutter\en.stm32cubef0\STM32Cube_FW_F0_V1.8.0\Projects\STM32F030C8_Varta\UART_TwoBoards_ComIT\EWARM\STM32F030C8_Des_Eval\Exe\Project.out
#    Map file     =  
#        D:\Mario\!_Working_Dir_Mario\Desoutter\en.stm32cubef0\STM32Cube_FW_F0_V1.8.0\Projects\STM32F030C8_Varta\UART_TwoBoards_ComIT\EWARM\STM32F030C8_Des_Eval\List\Project.map
#    Command line =  
#        D:\Mario\!_Working_Dir_Mario\Desoutter\en.stm32cubef0\STM32Cube_FW_F0_V1.8.0\Projects\STM32F030C8_Varta\UART_TwoBoards_ComIT\EWARM\STM32F030C8_Des_Eval\Obj\main.o
#        D:\Mario\!_Working_Dir_Mario\Desoutter\en.stm32cubef0\STM32Cube_FW_F0_V1.8.0\Projects\STM32F030C8_Varta\UART_TwoBoards_ComIT\EWARM\STM32F030C8_Des_Eval\Obj\startup_stm32f030x8.o
#        D:\Mario\!_Working_Dir_Mario\Desoutter\en.stm32cubef0\STM32Cube_FW_F0_V1.8.0\Projects\STM32F030C8_Varta\UART_TwoBoards_ComIT\EWARM\STM32F030C8_Des_Eval\Obj\stm32f0xx_Des_Eval.o
#        D:\Mario\!_Working_Dir_Mario\Desoutter\en.stm32cubef0\STM32Cube_FW_F0_V1.8.0\Projects\STM32F030C8_Varta\UART_TwoBoards_ComIT\EWARM\STM32F030C8_Des_Eval\Obj\stm32f0xx_eeprom.o
#        D:\Mario\!_Working_Dir_Mario\Desoutter\en.stm32cubef0\STM32Cube_FW_F0_V1.8.0\Projects\STM32F030C8_Varta\UART_TwoBoards_ComIT\EWARM\STM32F030C8_Des_Eval\Obj\stm32f0xx_hal.o
#        D:\Mario\!_Working_Dir_Mario\Desoutter\en.stm32cubef0\STM32Cube_FW_F0_V1.8.0\Projects\STM32F030C8_Varta\UART_TwoBoards_ComIT\EWARM\STM32F030C8_Des_Eval\Obj\stm32f0xx_hal_cortex.o
#        D:\Mario\!_Working_Dir_Mario\Desoutter\en.stm32cubef0\STM32Cube_FW_F0_V1.8.0\Projects\STM32F030C8_Varta\UART_TwoBoards_ComIT\EWARM\STM32F030C8_Des_Eval\Obj\stm32f0xx_hal_dma.o
#        D:\Mario\!_Working_Dir_Mario\Desoutter\en.stm32cubef0\STM32Cube_FW_F0_V1.8.0\Projects\STM32F030C8_Varta\UART_TwoBoards_ComIT\EWARM\STM32F030C8_Des_Eval\Obj\stm32f0xx_hal_gpio.o
#        D:\Mario\!_Working_Dir_Mario\Desoutter\en.stm32cubef0\STM32Cube_FW_F0_V1.8.0\Projects\STM32F030C8_Varta\UART_TwoBoards_ComIT\EWARM\STM32F030C8_Des_Eval\Obj\stm32f0xx_hal_i2c.o
#        D:\Mario\!_Working_Dir_Mario\Desoutter\en.stm32cubef0\STM32Cube_FW_F0_V1.8.0\Projects\STM32F030C8_Varta\UART_TwoBoards_ComIT\EWARM\STM32F030C8_Des_Eval\Obj\stm32f0xx_hal_i2c_ex.o
#        D:\Mario\!_Working_Dir_Mario\Desoutter\en.stm32cubef0\STM32Cube_FW_F0_V1.8.0\Projects\STM32F030C8_Varta\UART_TwoBoards_ComIT\EWARM\STM32F030C8_Des_Eval\Obj\stm32f0xx_hal_msp.o
#        D:\Mario\!_Working_Dir_Mario\Desoutter\en.stm32cubef0\STM32Cube_FW_F0_V1.8.0\Projects\STM32F030C8_Varta\UART_TwoBoards_ComIT\EWARM\STM32F030C8_Des_Eval\Obj\stm32f0xx_hal_rcc.o
#        D:\Mario\!_Working_Dir_Mario\Desoutter\en.stm32cubef0\STM32Cube_FW_F0_V1.8.0\Projects\STM32F030C8_Varta\UART_TwoBoards_ComIT\EWARM\STM32F030C8_Des_Eval\Obj\stm32f0xx_hal_rcc_ex.o
#        D:\Mario\!_Working_Dir_Mario\Desoutter\en.stm32cubef0\STM32Cube_FW_F0_V1.8.0\Projects\STM32F030C8_Varta\UART_TwoBoards_ComIT\EWARM\STM32F030C8_Des_Eval\Obj\stm32f0xx_hal_tim.o
#        D:\Mario\!_Working_Dir_Mario\Desoutter\en.stm32cubef0\STM32Cube_FW_F0_V1.8.0\Projects\STM32F030C8_Varta\UART_TwoBoards_ComIT\EWARM\STM32F030C8_Des_Eval\Obj\stm32f0xx_hal_tim_ex.o
#        D:\Mario\!_Working_Dir_Mario\Desoutter\en.stm32cubef0\STM32Cube_FW_F0_V1.8.0\Projects\STM32F030C8_Varta\UART_TwoBoards_ComIT\EWARM\STM32F030C8_Des_Eval\Obj\stm32f0xx_hal_uart.o
#        D:\Mario\!_Working_Dir_Mario\Desoutter\en.stm32cubef0\STM32Cube_FW_F0_V1.8.0\Projects\STM32F030C8_Varta\UART_TwoBoards_ComIT\EWARM\STM32F030C8_Des_Eval\Obj\stm32f0xx_hal_uart_ex.o
#        D:\Mario\!_Working_Dir_Mario\Desoutter\en.stm32cubef0\STM32Cube_FW_F0_V1.8.0\Projects\STM32F030C8_Varta\UART_TwoBoards_ComIT\EWARM\STM32F030C8_Des_Eval\Obj\stm32f0xx_it.o
#        D:\Mario\!_Working_Dir_Mario\Desoutter\en.stm32cubef0\STM32Cube_FW_F0_V1.8.0\Projects\STM32F030C8_Varta\UART_TwoBoards_ComIT\EWARM\STM32F030C8_Des_Eval\Obj\system_stm32f0xx.o
#        --redirect _Printf=_PrintfSmall --redirect _Scanf=_ScanfSmall -o
#        D:\Mario\!_Working_Dir_Mario\Desoutter\en.stm32cubef0\STM32Cube_FW_F0_V1.8.0\Projects\STM32F030C8_Varta\UART_TwoBoards_ComIT\EWARM\STM32F030C8_Des_Eval\Exe\Project.out
#        --map
#        D:\Mario\!_Working_Dir_Mario\Desoutter\en.stm32cubef0\STM32Cube_FW_F0_V1.8.0\Projects\STM32F030C8_Varta\UART_TwoBoards_ComIT\EWARM\STM32F030C8_Des_Eval\List\Project.map
#        --config
#        D:\Mario\!_Working_Dir_Mario\Desoutter\en.stm32cubef0\STM32Cube_FW_F0_V1.8.0\Projects\STM32F030C8_Varta\UART_TwoBoards_ComIT\EWARM\stm32f030x8_flash.icf
#        --semihosting --entry __iar_program_start --vfe
#
###############################################################################

*******************************************************************************
*** RUNTIME MODEL ATTRIBUTES
***

CppFlavor       = *
__SystemLibrary = DLib


*******************************************************************************
*** PLACEMENT SUMMARY
***

"A0":  place at 0x08000000 { ro section .intvec };
"P1":  place in [from 0x08000000 to 0x0800ffff] { ro };
"P2":  place in [from 0x20000000 to 0x20001fff] { rw, block CSTACK, block HEAP };
initialize by copy { rw };

  Section            Kind        Address    Size  Object
  -------            ----        -------    ----  ------
"A0":                                       0xb4
  .intvec            ro code  0x08000000    0xb4  startup_stm32f030x8.o [1]
                            - 0x080000b4    0xb4

"P1":                                     0x2d2c
  .text              ro code  0x080000b4  0x1348  stm32f0xx_hal_i2c.o [1]
  .text              ro code  0x080013fc   0x170  stm32f0xx_hal_msp.o [1]
  .text              ro code  0x0800156c     0xc  stm32f0xx_hal.o [1]
  .text              ro code  0x08001578   0x27c  stm32f0xx_hal_dma.o [1]
  .text              ro code  0x080017f4     0x2  stm32f0xx_hal_i2c.o [1]
  .text              ro code  0x080017f6     0x2  stm32f0xx_hal_i2c.o [1]
  .text              ro code  0x080017f8     0x2  stm32f0xx_hal_i2c.o [1]
  .text              ro code  0x080017fa     0x2  startup_stm32f030x8.o [1]
  .text              ro code  0x080017fc   0x202  main.o [1]
  .text              ro code  0x080019fe     0x2  stm32f0xx_hal_i2c.o [1]
  .text              ro code  0x08001a00     0x2  stm32f0xx_hal_i2c.o [1]
  .text              ro code  0x08001a02     0x2  stm32f0xx_hal_i2c.o [1]
  .text              ro code  0x08001a04     0x2  stm32f0xx_hal_i2c.o [1]
  .text              ro code  0x08001a06     0x2  startup_stm32f030x8.o [1]
  .text              ro code  0x08001a08   0x23c  stm32f0xx_hal_gpio.o [1]
  .text              ro code  0x08001c44   0x114  stm32f0xx_hal_cortex.o [1]
  .text              ro code  0x08001d58    0xae  I32DivModFast.o [4]
  .text              ro code  0x08001e06     0x2  startup_stm32f030x8.o [1]
  .text              ro code  0x08001e08    0x22  stm32f0xx_hal.o [1]
  .text              ro code  0x08001e2a     0x2  startup_stm32f030x8.o [1]
  .text              ro code  0x08001e2c   0x108  stm32f0xx_Des_Eval.o [1]
  .text              ro code  0x08001f34    0x34  ABImemcpy.o [4]
  .text              ro code  0x08001f68    0x6c  stm32f0xx_hal_i2c_ex.o [1]
  .text              ro code  0x08001fd4   0x6ec  stm32f0xx_hal_rcc.o [1]
  .text              ro code  0x080026c0    0x20  stm32f0xx_hal.o [1]
  .text              ro code  0x080026e0     0x2  IntDivZer.o [4]
  .text              ro code  0x080026e2    0x24  stm32f0xx_hal.o [1]
  .text              ro code  0x08002706     0x2  startup_stm32f030x8.o [1]
  .text              ro code  0x08002708   0x2a4  stm32f0xx_hal_uart.o [1]
  .text              ro code  0x080029ac   0x182  stm32f0xx_hal_tim.o [1]
  .text              ro code  0x08002b2e     0x2  stm32f0xx_hal_tim.o [1]
  .text              ro code  0x08002b30     0x2  stm32f0xx_hal_tim.o [1]
  .text              ro code  0x08002b32     0x2  stm32f0xx_hal_tim.o [1]
  .text              ro code  0x08002b34     0x2  stm32f0xx_hal_tim.o [1]
  .text              ro code  0x08002b36     0x2  stm32f0xx_hal_tim_ex.o [1]
  .text              ro code  0x08002b38     0x2  stm32f0xx_hal_tim.o [1]
  .text              ro code  0x08002b3a     0x2  stm32f0xx_hal_tim_ex.o [1]
  .text              ro code  0x08002b3c    0x94  system_stm32f0xx.o [1]
  .text              ro code  0x08002bd0    0x70  stm32f0xx_it.o [1]
  .text              ro code  0x08002c40    0x10  stm32f0xx_hal.o [1]
  .text              ro code  0x08002c50    0x3c  zero_init3.o [4]
  .text              ro code  0x08002c8c    0x30  copy_init3.o [4]
  .text              ro code  0x08002cbc    0x28  data_init.o [4]
  .iar.init_table    const    0x08002ce4    0x24  - Linker created -
  .text              ro code  0x08002d08    0x1a  cmain.o [4]
  .text              ro code  0x08002d22     0x4  low_level_init.o [3]
  .text              ro code  0x08002d26     0x8  exit.o [3]
  .text              ro code  0x08002d2e     0x2  startup_stm32f030x8.o [1]
  .text              ro code  0x08002d30     0xa  cexit.o [4]
  .text              ro code  0x08002d3a     0x2  startup_stm32f030x8.o [1]
  .text              ro code  0x08002d3c    0x14  exit.o [5]
  Initializer bytes  const    0x08002d50    0x14  <for P2-1>
  .rodata            const    0x08002d64    0x10  main.o [1]
  .rodata            const    0x08002d74    0x10  stm32f0xx_hal_rcc.o [1]
  .rodata            const    0x08002d84    0x10  stm32f0xx_hal_rcc.o [1]
  .rodata            const    0x08002d94    0x10  system_stm32f0xx.o [1]
  .text              ro code  0x08002da4    0x10  startup_stm32f030x8.o [1]
  .text              ro code  0x08002db4     0xc  cstartup_M.o [4]
  .rodata            const    0x08002dc0     0x8  stm32f0xx_Des_Eval.o [1]
  .text              ro code  0x08002dc8     0x2  startup_stm32f030x8.o [1]
  .text              ro code  0x08002dca     0x2  startup_stm32f030x8.o [1]
  .text              ro code  0x08002dcc     0x2  startup_stm32f030x8.o [1]
  .text              ro code  0x08002dce     0x2  startup_stm32f030x8.o [1]
  .text              ro code  0x08002dd0     0x2  startup_stm32f030x8.o [1]
  .text              ro code  0x08002dd2     0x2  startup_stm32f030x8.o [1]
  .text              ro code  0x08002dd4     0x2  startup_stm32f030x8.o [1]
  .text              ro code  0x08002dd6     0x2  startup_stm32f030x8.o [1]
  .text              ro code  0x08002dd8     0x2  startup_stm32f030x8.o [1]
  .text              ro code  0x08002dda     0x2  startup_stm32f030x8.o [1]
  .text              ro code  0x08002ddc     0x2  startup_stm32f030x8.o [1]
  .text              ro code  0x08002dde     0x2  startup_stm32f030x8.o [1]
  .rodata            const    0x08002de0     0x0  zero_init3.o [4]
  .rodata            const    0x08002de0     0x0  copy_init3.o [4]
                            - 0x08002de0  0x2d2c

"P2", part 1 of 3:                          0x14
  P2-1                        0x20000000    0x14  <Init block>
    .data            inited   0x20000000    0x10  stm32f0xx_Des_Eval.o [1]
    .data            inited   0x20000010     0x4  system_stm32f0xx.o [1]
                            - 0x20000014    0x14

"P2", part 2 of 3:                         0x400
  CSTACK                      0x20000018   0x400  <Block>
    CSTACK           uninit   0x20000018   0x400  <Block tail>
                            - 0x20000418   0x400

"P2", part 3 of 3:                         0x1fc
  .bss               zero     0x20000418    0x70  main.o [1]
  .bss               zero     0x20000488    0x70  main.o [1]
  .bss               zero     0x200004f8    0x4c  main.o [1]
  .bss               zero     0x20000544    0x44  stm32f0xx_hal_msp.o [1]
  .bss               zero     0x20000588    0x44  stm32f0xx_hal_msp.o [1]
  .bss               zero     0x200005cc    0x40  main.o [1]
  .bss               zero     0x2000060c     0x4  stm32f0xx_hal.o [1]
  .bss               zero     0x20000610     0x1  main.o [1]
                            - 0x20000611   0x1f9


*******************************************************************************
*** INIT TABLE
***

          Address     Size
          -------     ----
Zero (__iar_zero_init3)
    1 destination range, total size 0x1f9:
          0x20000418  0x1f9

Copy (__iar_copy_init3)
    1 source range, total size 0x14:
          0x08002d50   0x14
    1 destination range, total size 0x14:
          0x20000000   0x14



*******************************************************************************
*** MODULE SUMMARY
***

    Module                  ro code  ro data  rw data
    ------                  -------  -------  -------
D:\Mario\!_Working_Dir_Mario\Desoutter\en.stm32cubef0\STM32Cube_FW_F0_V1.8.0\Projects\STM32F030C8_Varta\UART_TwoBoards_ComIT\EWARM\STM32F030C8_Des_Eval\Obj: [1]
    main.o                      514       16      365
    startup_stm32f030x8.o       234
    stm32f0xx_Des_Eval.o        264       24       16
    stm32f0xx_hal.o             130                 4
    stm32f0xx_hal_cortex.o      276
    stm32f0xx_hal_dma.o         636
    stm32f0xx_hal_gpio.o        572
    stm32f0xx_hal_i2c.o       4 950
    stm32f0xx_hal_i2c_ex.o      108
    stm32f0xx_hal_msp.o         368               136
    stm32f0xx_hal_rcc.o       1 772       32
    stm32f0xx_hal_tim.o         396
    stm32f0xx_hal_tim_ex.o        4
    stm32f0xx_hal_uart.o        676
    stm32f0xx_it.o              112
    system_stm32f0xx.o          148       20        4
    -------------------------------------------------
    Total:                   11 160       92      525

command line: [2]
    -------------------------------------------------
    Total:

dl6M_tlf.a: [3]
    exit.o                        8
    low_level_init.o              4
    -------------------------------------------------
    Total:                       12

rt6M_tl.a: [4]
    ABImemcpy.o                  52
    I32DivModFast.o             174
    IntDivZer.o                   2
    cexit.o                      10
    cmain.o                      26
    copy_init3.o                 48
    cstartup_M.o                 12
    data_init.o                  40
    zero_init3.o                 60
    -------------------------------------------------
    Total:                      424

shb_l.a: [5]
    exit.o                       20
    -------------------------------------------------
    Total:                       20

    Linker created                        36    1 024
-----------------------------------------------------
    Grand Total:             11 616      128    1 549


*******************************************************************************
*** ENTRY LIST
***

Entry                      Address   Size  Type      Object
-----                      -------   ----  ----      ------
.iar.init_table$$Base   0x08002ce4          --   Gb  - Linker created -
.iar.init_table$$Limit  0x08002d08          --   Gb  - Linker created -
?main                   0x08002d09         Code  Gb  cmain.o [4]
AHBPrescTable           0x08002d94   0x10  Data  Gb  system_stm32f0xx.o [1]
BSP_LED_Init            0x08001e2d   0xba  Code  Gb  stm32f0xx_Des_Eval.o [1]
BSP_LED_On              0x08001ee9   0x20  Code  Gb  stm32f0xx_Des_Eval.o [1]
BSP_LED_Toggle          0x08001f09   0x1e  Code  Gb  stm32f0xx_Des_Eval.o [1]
CSTACK$$Base            0x20000018          --   Gb  - Linker created -
CSTACK$$Limit           0x20000418          --   Gb  - Linker created -
DEBUGUartHandle         0x20000488   0x70  Data  Gb  main.o [1]
DMA1_Channel2_3_IRQHandler
                        0x08002c1d   0x14  Code  Gb  stm32f0xx_it.o [1]
DMA_CalcBaseAndBitshift
                        0x080017cf   0x1a  Code  Lc  stm32f0xx_hal_dma.o [1]
DMA_SetConfig           0x080017a5   0x2a  Code  Lc  stm32f0xx_hal_dma.o [1]
EXTI4_15_IRQHandler     0x08002c01    0xc  Code  Gb  stm32f0xx_it.o [1]
Error_Handler           0x080019e9   0x16  Code  Lc  main.o [1]
HAL_DMA_Abort_IT        0x08001679   0x58  Code  Gb  stm32f0xx_hal_dma.o [1]
HAL_DMA_IRQHandler      0x080016d1   0xd4  Code  Gb  stm32f0xx_hal_dma.o [1]
HAL_DMA_Init            0x08001579   0x6c  Code  Gb  stm32f0xx_hal_dma.o [1]
HAL_DMA_Start_IT        0x080015e9   0x90  Code  Gb  stm32f0xx_hal_dma.o [1]
HAL_Delay               0x080026c1   0x20  Code  Wk  stm32f0xx_hal.o [1]
HAL_GPIO_EXTI_Callback  0x080019d3   0x16  Code  Gb  main.o [1]
HAL_GPIO_EXTI_IRQHandler
                        0x08001bfd   0x20  Code  Gb  stm32f0xx_hal_gpio.o [1]
HAL_GPIO_Init           0x08001a09  0x1d6  Code  Gb  stm32f0xx_hal_gpio.o [1]
HAL_GPIO_TogglePin      0x08001bf3    0xa  Code  Gb  stm32f0xx_hal_gpio.o [1]
HAL_GPIO_WritePin       0x08001bdf   0x14  Code  Gb  stm32f0xx_hal_gpio.o [1]
HAL_GetTick             0x0800156d    0xc  Code  Wk  stm32f0xx_hal.o [1]
HAL_I2CEx_ConfigAnalogFilter
                        0x08001f69   0x66  Code  Gb  stm32f0xx_hal_i2c_ex.o [1]
HAL_I2C_AbortCpltCallback
                        0x08001a05    0x2  Code  Wk  stm32f0xx_hal_i2c.o [1]
HAL_I2C_AddrCallback    0x080017f5    0x2  Code  Wk  stm32f0xx_hal_i2c.o [1]
HAL_I2C_ER_IRQHandler   0x080006f7   0x68  Code  Gb  stm32f0xx_hal_i2c.o [1]
HAL_I2C_EV_IRQHandler   0x080006d9   0x1e  Code  Gb  stm32f0xx_hal_i2c.o [1]
HAL_I2C_ErrorCallback   0x08001949    0xc  Code  Gb  main.o [1]
HAL_I2C_GetState        0x0800075f    0x6  Code  Gb  stm32f0xx_hal_i2c.o [1]
HAL_I2C_Init            0x080000b5   0xcc  Code  Gb  stm32f0xx_hal_i2c.o [1]
HAL_I2C_IsDeviceReady   0x08000571  0x154  Code  Gb  stm32f0xx_hal_i2c.o [1]
HAL_I2C_ListenCpltCallback
                        0x08001a03    0x2  Code  Wk  stm32f0xx_hal_i2c.o [1]
HAL_I2C_MasterRxCpltCallback
                        0x08001a01    0x2  Code  Wk  stm32f0xx_hal_i2c.o [1]
HAL_I2C_MasterTxCpltCallback
                        0x080019ff    0x2  Code  Wk  stm32f0xx_hal_i2c.o [1]
HAL_I2C_Master_Transmit
                        0x08000181  0x184  Code  Gb  stm32f0xx_hal_i2c.o [1]
HAL_I2C_MemRxCpltCallback
                        0x08001947    0x2  Code  Gb  main.o [1]
HAL_I2C_MemTxCpltCallback
                        0x08001945    0x2  Code  Gb  main.o [1]
HAL_I2C_Mem_Read_DMA    0x08000445  0x128  Code  Gb  stm32f0xx_hal_i2c.o [1]
HAL_I2C_Mem_Write_DMA   0x08000319  0x126  Code  Gb  stm32f0xx_hal_i2c.o [1]
HAL_I2C_MspInit         0x080013fd  0x152  Code  Gb  stm32f0xx_hal_msp.o [1]
HAL_I2C_MspInit::hdma_rx
                        0x20000588   0x44  Data  Lc  stm32f0xx_hal_msp.o [1]
HAL_I2C_MspInit::hdma_tx
                        0x20000544   0x44  Data  Lc  stm32f0xx_hal_msp.o [1]
HAL_I2C_SlaveRxCpltCallback
                        0x080017f9    0x2  Code  Wk  stm32f0xx_hal_i2c.o [1]
HAL_I2C_SlaveTxCpltCallback
                        0x080017f7    0x2  Code  Wk  stm32f0xx_hal_i2c.o [1]
HAL_IncTick             0x08002c41   0x10  Code  Wk  stm32f0xx_hal.o [1]
HAL_Init                0x08001e09   0x1c  Code  Gb  stm32f0xx_hal.o [1]
HAL_InitTick            0x080026e3   0x24  Code  Wk  stm32f0xx_hal.o [1]
HAL_MspInit             0x08001e29    0x2  Code  Wk  stm32f0xx_hal.o [1]
HAL_NVIC_EnableIRQ      0x08001d25    0xe  Code  Gb  stm32f0xx_hal_cortex.o [1]
HAL_NVIC_SetPriority    0x08001d11   0x14  Code  Gb  stm32f0xx_hal_cortex.o [1]
HAL_RCC_ClockConfig     0x0800249d  0x15e  Code  Gb  stm32f0xx_hal_rcc.o [1]
HAL_RCC_GetHCLKFreq     0x0800268f    0x6  Code  Gb  stm32f0xx_hal_rcc.o [1]
HAL_RCC_GetSysClockFreq
                        0x08002611   0x7e  Code  Gb  stm32f0xx_hal_rcc.o [1]
HAL_RCC_OscConfig       0x08001fd5  0x4aa  Code  Gb  stm32f0xx_hal_rcc.o [1]
HAL_SYSTICK_Config      0x08001d33    0xc  Code  Gb  stm32f0xx_hal_cortex.o [1]
HAL_TIMEx_BreakCallback
                        0x08002b37    0x2  Code  Wk  stm32f0xx_hal_tim_ex.o [1]
HAL_TIMEx_CommutationCallback
                        0x08002b3b    0x2  Code  Wk  stm32f0xx_hal_tim_ex.o [1]
HAL_TIM_IC_CaptureCallback
                        0x08002b2f    0x2  Code  Wk  stm32f0xx_hal_tim.o [1]
HAL_TIM_IRQHandler      0x080029ad  0x182  Code  Gb  stm32f0xx_hal_tim.o [1]
HAL_TIM_OC_DelayElapsedCallback
                        0x08002b31    0x2  Code  Wk  stm32f0xx_hal_tim.o [1]
HAL_TIM_PWM_PulseFinishedCallback
                        0x08002b33    0x2  Code  Wk  stm32f0xx_hal_tim.o [1]
HAL_TIM_PeriodElapsedCallback
                        0x08002b35    0x2  Code  Wk  stm32f0xx_hal_tim.o [1]
HAL_TIM_TriggerCallback
                        0x08002b39    0x2  Code  Wk  stm32f0xx_hal_tim.o [1]
HAL_UART_ErrorCallback  0x080019c9    0xa  Code  Gb  main.o [1]
HAL_UART_IRQHandler     0x08002709  0x138  Code  Gb  stm32f0xx_hal_uart.o [1]
HAL_UART_RxCpltCallback
                        0x080019ab    0x8  Code  Gb  main.o [1]
HAL_UART_TxCpltCallback
                        0x080019a3    0x8  Code  Gb  main.o [1]
HardFault_Handler       0x08002bd3    0x4  Code  Gb  stm32f0xx_it.o [1]
I2C1_IRQHandler         0x08002c0d   0x10  Code  Gb  stm32f0xx_it.o [1]
I2C_DMAAbort            0x080010db   0x3e  Code  Lc  stm32f0xx_hal_i2c.o [1]
I2C_DMAError            0x080010bd   0x1e  Code  Lc  stm32f0xx_hal_i2c.o [1]
I2C_DMAMasterReceiveCplt
                        0x08001057   0x54  Code  Lc  stm32f0xx_hal_i2c.o [1]
I2C_DMAMasterTransmitCplt
                        0x08001003   0x54  Code  Lc  stm32f0xx_hal_i2c.o [1]
I2C_Disable_IRQ         0x08001371   0x8c  Code  Lc  stm32f0xx_hal_i2c.o [1]
I2C_Enable_IRQ          0x080012cb   0x96  Code  Lc  stm32f0xx_hal_i2c.o [1]
I2C_Flush_TXDR          0x08000fdd   0x26  Code  Lc  stm32f0xx_hal_i2c.o [1]
I2C_ITAddrCplt          0x08000b41   0xe6  Code  Lc  stm32f0xx_hal_i2c.o [1]
I2C_ITError             0x08000edd   0xfa  Code  Lc  stm32f0xx_hal_i2c.o [1]
I2C_ITListenCplt        0x08000e71   0x64  Code  Lc  stm32f0xx_hal_i2c.o [1]
I2C_ITMasterCplt        0x08000c81   0xd8  Code  Lc  stm32f0xx_hal_i2c.o [1]
I2C_ITSlaveCplt         0x08000d59  0x118  Code  Lc  stm32f0xx_hal_i2c.o [1]
I2C_ITSlaveSequentialCplt
                        0x08000c27   0x5a  Code  Lc  stm32f0xx_hal_i2c.o [1]
I2C_IsAcknowledgeFailed
                        0x0800121d   0x80  Code  Lc  stm32f0xx_hal_i2c.o [1]
I2C_Master_ISR_DMA      0x08000899   0xf4  Code  Lc  stm32f0xx_hal_i2c.o [1]
I2C_RequestMemoryRead   0x08000aa7   0x9a  Code  Lc  stm32f0xx_hal_i2c.o [1]
I2C_RequestMemoryWrite  0x08000a0b   0x9c  Code  Lc  stm32f0xx_hal_i2c.o [1]
I2C_Slave_ISR_DMA       0x0800098d   0x7e  Code  Lc  stm32f0xx_hal_i2c.o [1]
I2C_Slave_ISR_IT        0x08000765  0x130  Code  Lc  stm32f0xx_hal_i2c.o [1]
I2C_TransferConfig      0x0800129d   0x2e  Code  Lc  stm32f0xx_hal_i2c.o [1]
I2C_WaitOnFlagUntilTimeout
                        0x08001119   0x52  Code  Lc  stm32f0xx_hal_i2c.o [1]
I2C_WaitOnSTOPFlagUntilTimeout
                        0x080011c5   0x52  Code  Lc  stm32f0xx_hal_i2c.o [1]
I2C_WaitOnTXISFlagUntilTimeout
                        0x0800116b   0x5a  Code  Lc  stm32f0xx_hal_i2c.o [1]
I2cHandle               0x200004f8   0x4c  Data  Gb  main.o [1]
LED_PIN                 0x08002dc0    0x8  Data  Gb  stm32f0xx_Des_Eval.o [1]
LED_PORT                0x20000000   0x10  Data  Gb  stm32f0xx_Des_Eval.o [1]
NMI_Handler             0x08002bd1    0x2  Code  Gb  stm32f0xx_it.o [1]
NVIC_EnableIRQ          0x08001c45   0x16  Code  Lc  stm32f0xx_hal_cortex.o [1]
NVIC_SetPriority        0x08001c5b   0x84  Code  Lc  stm32f0xx_hal_cortex.o [1]
OWUartHandle            0x20000418   0x70  Data  Gb  main.o [1]
PendSV_Handler          0x08002bd9    0x2  Code  Gb  stm32f0xx_it.o [1]
Region$$Table$$Base     0x08002ce4          --   Gb  - Linker created -
Region$$Table$$Limit    0x08002d08          --   Gb  - Linker created -
SVC_Handler             0x08002bd7    0x2  Code  Gb  stm32f0xx_it.o [1]
SysTick_Config          0x08001cdf   0x32  Code  Lc  stm32f0xx_hal_cortex.o [1]
SysTick_Handler         0x08002bdb    0x8  Code  Gb  stm32f0xx_it.o [1]
SystemClock_Config      0x08001955   0x4e  Code  Gb  main.o [1]
SystemCoreClock         0x20000010    0x4  Data  Gb  system_stm32f0xx.o [1]
SystemInit              0x08002b3d   0x68  Code  Gb  system_stm32f0xx.o [1]
TIM3_IRQHandler         0x08002be3    0xa  Code  Gb  stm32f0xx_it.o [1]
TimHandle               0x200005cc   0x40  Data  Gb  main.o [1]
UART_DMAAbortOnError    0x08002867   0x1a  Code  Lc  stm32f0xx_hal_uart.o [1]
UART_EndRxTransfer      0x08002845   0x20  Code  Lc  stm32f0xx_hal_uart.o [1]
UART_EndTransmit_IT     0x080028f5   0x20  Code  Gb  stm32f0xx_hal_uart.o [1]
UART_Receive_IT         0x08002915   0x92  Code  Gb  stm32f0xx_hal_uart.o [1]
UART_Transmit_IT        0x08002881   0x74  Code  Gb  stm32f0xx_hal_uart.o [1]
USART1_IRQHandler       0x08002bed    0xa  Code  Gb  stm32f0xx_it.o [1]
USART2_IRQHandler       0x08002bf7    0xa  Code  Gb  stm32f0xx_it.o [1]
UartReady               0x20000610    0x1  Data  Gb  main.o [1]
__ICFEDIT_region_RAM_end__ {Abs}
                        0x20001fff         Data  Gb  command line/config [2]
__ICFEDIT_region_RAM_start__ {Abs}
                        0x20000000         Data  Gb  command line/config [2]
__aeabi_idiv0           0x080026e1         Code  Gb  IntDivZer.o [4]
__aeabi_memcpy4         0x08001f35         Code  Wk  ABImemcpy.o [4]
__aeabi_uidiv           0x08001d59         Code  Gb  I32DivModFast.o [4]
__aeabi_uidivmod        0x08001d59         Code  Gb  I32DivModFast.o [4]
__cmain                 0x08002d09         Code  Gb  cmain.o [4]
__exit                  0x08002d3d   0x14  Code  Gb  exit.o [5]
__iar_copy_init3        0x08002c8d   0x30  Code  Gb  copy_init3.o [4]
__iar_data_init3        0x08002cbd   0x28  Code  Gb  data_init.o [4]
__iar_program_start     0x08002db5         Code  Gb  cstartup_M.o [4]
__iar_zero_init3        0x08002c51   0x3c  Code  Gb  zero_init3.o [4]
__low_level_init        0x08002d23    0x4  Code  Gb  low_level_init.o [3]
__vector_table          0x08000000         Data  Gb  startup_stm32f030x8.o [1]
_call_main              0x08002d15         Code  Gb  cmain.o [4]
_exit                   0x08002d31         Code  Gb  cexit.o [4]
_main                   0x08002d1f         Code  Gb  cmain.o [4]
exit                    0x08002d27    0x8  Code  Gb  exit.o [3]
main                    0x080017fd  0x148  Code  Gb  main.o [1]
uwTick                  0x2000060c    0x4  Data  Gb  stm32f0xx_hal.o [1]


[1] = D:\Mario\!_Working_Dir_Mario\Desoutter\en.stm32cubef0\STM32Cube_FW_F0_V1.8.0\Projects\STM32F030C8_Varta\UART_TwoBoards_ComIT\EWARM\STM32F030C8_Des_Eval\Obj
[2] = command line
[3] = dl6M_tlf.a
[4] = rt6M_tl.a
[5] = shb_l.a

  11 616 bytes of readonly  code memory
     128 bytes of readonly  data memory
   1 549 bytes of readwrite data memory

Errors: none
Warnings: none
